; ModuleID = '15/136.c'
source_filename = "15/136.c"
target datalayout = "e-m:e-p270:32:32-p271:32:32-p272:64:64-i64:64-f80:128-n8:16:32:64-S128"
target triple = "x86_64-pc-linux-gnu"

@.str = private unnamed_addr constant [3 x i8] c"%d\00", align 1
@.str.1 = private unnamed_addr constant [2 x i8] c"\0A\00", align 1
@.str.2 = private unnamed_addr constant [4 x i8] c"%d\0A\00", align 1

; Function Attrs: noinline nounwind uwtable
define dso_local i32 @main() #0 {
  %1 = alloca i32, align 4
  %2 = alloca [100 x [100 x i32]], align 16
  %3 = alloca i32, align 4
  %4 = alloca i32, align 4
  %5 = alloca i32, align 4
  %6 = alloca i32, align 4
  %7 = alloca i32, align 4
  %8 = alloca i32, align 4
  %9 = alloca i32, align 4
  %10 = alloca i32, align 4
  store i32 0, i32* %1, align 4
  %11 = bitcast [100 x [100 x i32]]* %2 to i8*
  call void @llvm.memset.p0i8.i64(i8* align 16 %11, i8 0, i64 40000, i1 false)
  %12 = bitcast i8* %11 to <{ <{ i32, [99 x i32] }>, [99 x <{ i32, [99 x i32] }>] }>*
  %13 = getelementptr inbounds <{ <{ i32, [99 x i32] }>, [99 x <{ i32, [99 x i32] }>] }>, <{ <{ i32, [99 x i32] }>, [99 x <{ i32, [99 x i32] }>] }>* %12, i32 0, i32 0
  %14 = getelementptr inbounds <{ i32, [99 x i32] }>, <{ i32, [99 x i32] }>* %13, i32 0, i32 0
  store i32 1, i32* %14, align 16
  %15 = call i32 (i8*, ...) @__isoc99_scanf(i8* getelementptr inbounds ([3 x i8], [3 x i8]* @.str, i64 0, i64 0), i32* %9)
  store i32 1, i32* %3, align 4
  br label %16

16:                                               ; preds = %38, %0
  %17 = load i32, i32* %3, align 4
  %18 = load i32, i32* %9, align 4
  %19 = icmp sle i32 %17, %18
  br i1 %19, label %20, label %41

20:                                               ; preds = %16
  store i32 1, i32* %4, align 4
  br label %21

21:                                               ; preds = %33, %20
  %22 = load i32, i32* %4, align 4
  %23 = load i32, i32* %9, align 4
  %24 = icmp sle i32 %22, %23
  br i1 %24, label %25, label %36

25:                                               ; preds = %21
  %26 = load i32, i32* %3, align 4
  %27 = sext i32 %26 to i64
  %28 = getelementptr inbounds [100 x [100 x i32]], [100 x [100 x i32]]* %2, i64 0, i64 %27
  %29 = load i32, i32* %4, align 4
  %30 = sext i32 %29 to i64
  %31 = getelementptr inbounds [100 x i32], [100 x i32]* %28, i64 0, i64 %30
  %32 = call i32 (i8*, ...) @__isoc99_scanf(i8* getelementptr inbounds ([3 x i8], [3 x i8]* @.str, i64 0, i64 0), i32* %31)
  br label %33

33:                                               ; preds = %25
  %34 = load i32, i32* %4, align 4
  %35 = add nsw i32 %34, 1
  store i32 %35, i32* %4, align 4
  br label %21

36:                                               ; preds = %21
  %37 = call i32 (i8*, ...) @printf(i8* getelementptr inbounds ([2 x i8], [2 x i8]* @.str.1, i64 0, i64 0))
  br label %38

38:                                               ; preds = %36
  %39 = load i32, i32* %3, align 4
  %40 = add nsw i32 %39, 1
  store i32 %40, i32* %3, align 4
  br label %16

41:                                               ; preds = %16
  store i32 1, i32* %3, align 4
  br label %42

42:                                               ; preds = %74, %41
  %43 = load i32, i32* %3, align 4
  %44 = load i32, i32* %9, align 4
  %45 = icmp sle i32 %43, %44
  br i1 %45, label %46, label %77

46:                                               ; preds = %42
  store i32 1, i32* %4, align 4
  br label %47

47:                                               ; preds = %64, %46
  %48 = load i32, i32* %4, align 4
  %49 = load i32, i32* %9, align 4
  %50 = icmp sle i32 %48, %49
  br i1 %50, label %51, label %67

51:                                               ; preds = %47
  %52 = load i32, i32* %3, align 4
  %53 = sext i32 %52 to i64
  %54 = getelementptr inbounds [100 x [100 x i32]], [100 x [100 x i32]]* %2, i64 0, i64 %53
  %55 = load i32, i32* %4, align 4
  %56 = sext i32 %55 to i64
  %57 = getelementptr inbounds [100 x i32], [100 x i32]* %54, i64 0, i64 %56
  %58 = load i32, i32* %57, align 4
  %59 = icmp eq i32 %58, 0
  br i1 %59, label %60, label %63

60:                                               ; preds = %51
  %61 = load i32, i32* %3, align 4
  store i32 %61, i32* %5, align 4
  %62 = load i32, i32* %4, align 4
  store i32 %62, i32* %7, align 4
  br label %67

63:                                               ; preds = %51
  br label %64

64:                                               ; preds = %63
  %65 = load i32, i32* %4, align 4
  %66 = add nsw i32 %65, 1
  store i32 %66, i32* %4, align 4
  br label %47

67:                                               ; preds = %60, %47
  %68 = load i32, i32* %4, align 4
  %69 = load i32, i32* %9, align 4
  %70 = add nsw i32 %69, 1
  %71 = icmp ne i32 %68, %70
  br i1 %71, label %72, label %73

72:                                               ; preds = %67
  br label %77

73:                                               ; preds = %67
  br label %74

74:                                               ; preds = %73
  %75 = load i32, i32* %3, align 4
  %76 = add nsw i32 %75, 1
  store i32 %76, i32* %3, align 4
  br label %42

77:                                               ; preds = %72, %42
  %78 = load i32, i32* %9, align 4
  store i32 %78, i32* %3, align 4
  br label %79

79:                                               ; preds = %108, %77
  %80 = load i32, i32* %3, align 4
  %81 = icmp sge i32 %80, 1
  br i1 %81, label %82, label %111

82:                                               ; preds = %79
  %83 = load i32, i32* %9, align 4
  store i32 %83, i32* %4, align 4
  br label %84

84:                                               ; preds = %100, %82
  %85 = load i32, i32* %4, align 4
  %86 = icmp sge i32 %85, 1
  br i1 %86, label %87, label %103

87:                                               ; preds = %84
  %88 = load i32, i32* %3, align 4
  %89 = sext i32 %88 to i64
  %90 = getelementptr inbounds [100 x [100 x i32]], [100 x [100 x i32]]* %2, i64 0, i64 %89
  %91 = load i32, i32* %4, align 4
  %92 = sext i32 %91 to i64
  %93 = getelementptr inbounds [100 x i32], [100 x i32]* %90, i64 0, i64 %92
  %94 = load i32, i32* %93, align 4
  %95 = icmp eq i32 %94, 0
  br i1 %95, label %96, label %99

96:                                               ; preds = %87
  %97 = load i32, i32* %3, align 4
  store i32 %97, i32* %6, align 4
  %98 = load i32, i32* %4, align 4
  store i32 %98, i32* %8, align 4
  br label %103

99:                                               ; preds = %87
  br label %100

100:                                              ; preds = %99
  %101 = load i32, i32* %4, align 4
  %102 = add nsw i32 %101, -1
  store i32 %102, i32* %4, align 4
  br label %84

103:                                              ; preds = %96, %84
  %104 = load i32, i32* %4, align 4
  %105 = icmp ne i32 %104, 0
  br i1 %105, label %106, label %107

106:                                              ; preds = %103
  br label %111

107:                                              ; preds = %103
  br label %108

108:                                              ; preds = %107
  %109 = load i32, i32* %3, align 4
  %110 = add nsw i32 %109, -1
  store i32 %110, i32* %3, align 4
  br label %79

111:                                              ; preds = %106, %79
  %112 = load i32, i32* %8, align 4
  %113 = load i32, i32* %7, align 4
  %114 = sub nsw i32 %112, %113
  %115 = sub nsw i32 %114, 1
  %116 = load i32, i32* %6, align 4
  %117 = load i32, i32* %5, align 4
  %118 = sub nsw i32 %116, %117
  %119 = sub nsw i32 %118, 1
  %120 = mul nsw i32 %115, %119
  store i32 %120, i32* %10, align 4
  %121 = load i32, i32* %10, align 4
  %122 = call i32 (i8*, ...) @printf(i8* getelementptr inbounds ([4 x i8], [4 x i8]* @.str.2, i64 0, i64 0), i32 %121)
  ret i32 0
}

; Function Attrs: argmemonly nounwind willreturn
declare void @llvm.memset.p0i8.i64(i8* nocapture writeonly, i8, i64, i1 immarg) #1

declare dso_local i32 @__isoc99_scanf(i8*, ...) #2

declare dso_local i32 @printf(i8*, ...) #2


!llvm.module.flags = !{!0}
!llvm.ident = !{!1}

!0 = !{i32 1, !"wchar_size", i32 4}
!1 = !{!"clang version 10.0.0-4ubuntu1 "}
